target datalayout = "e-m:e-p270:32:32-p271:32:32-p272:64:64-i64:64-i128:128-f80:128-n8:16:32:64-S128"
target triple = "x86_64-pc-linux-gnu"

%struct.CVodeMemRec = type { double, ptr, ptr, i32, i32, i32, double, double, ptr, i32, ptr, ptr, i32, ptr, i32, i32, double, double, ptr, i32, i32, i32, ptr, ptr, ptr, i32, i32, ptr, ptr, ptr, i32, double, i32, i32, double, ptr, ptr, i32, ptr, ptr, i32, i32, i32, double, ptr, ptr, [13 x ptr], ptr, ptr, ptr, ptr, ptr, [13 x ptr], ptr, ptr, ptr, ptr, [13 x ptr], ptr, ptr, ptr, ptr, ptr, i32, [13 x ptr], ptr, ptr, ptr, ptr, ptr, i32, double, i32, i32, i32, i32, i32, double, double, double, double, double, double, double, double, [14 x double], [6 x double], [13 x double], double, double, double, double, double, double, double, double, double, double, double, i32, ptr, i32, i64, i32, i32, i32, i32, i32, double, double, double, i64, i64, i64, i64, i64, i64, i64, i64, i64, ptr, i64, i64, ptr, i64, i64, i64, i64, i64, i64, i32, i64, i64, i64, i64, i64, i64, double, double, double, ptr, ptr, ptr, ptr, ptr, i32, i32, i64, double, double, double, i32, double, i32, i32, i32, i32, i32, i32, i32, i32, i32, i32, i32, i32, i32, i32, i32, i32, ptr, ptr, ptr, i32, [6 x [4 x double]], i32, i64, ptr, i32, ptr, ptr, double, double, double, ptr, ptr, ptr, double, double, i32, i32, i64, ptr, i32, i32, ptr, i32 }

@.str = private unnamed_addr constant [7 x i8] c"CVODES\00", align 1
@.str.2 = private unnamed_addr constant [26 x i8] c"cvode_mem = NULL illegal.\00", align 1
@.str.26 = private unnamed_addr constant [22 x i8] c"CVodeSetRootDirection\00", align 1
@.str.27 = private unnamed_addr constant [33 x i8] c"Rootfinding was not initialized.\00", align 1

; Function Attrs: nounwind uwtable
define i32 @CVodeSetRootDirection(ptr noundef %0, ptr noundef %1) #0 {
  %3 = alloca i32, align 4
  %4 = alloca ptr, align 8
  %5 = alloca ptr, align 8
  %6 = alloca ptr, align 8
  %7 = alloca i32, align 4
  %8 = alloca i32, align 4
  %9 = alloca i32, align 4
  store ptr %0, ptr %4, align 8, !tbaa !3
  store ptr %1, ptr %5, align 8, !tbaa !49
  call void @llvm.lifetime.start.p0(i64 8, ptr %6) #5
  call void @llvm.lifetime.start.p0(i64 4, ptr %7) #5
  call void @llvm.lifetime.start.p0(i64 4, ptr %8) #5
  %10 = load ptr, ptr %4, align 8, !tbaa !3
  %11 = icmp eq ptr %10, null
  br i1 %11, label %12, label %13

12:                                               ; preds = %2
  call void (ptr, i32, ptr, ptr, ptr, ...) @cvProcessError(ptr noundef null, i32 noundef -21, ptr noundef @.str, ptr noundef @.str.26, ptr noundef @.str.2)
  store i32 -21, ptr %3, align 4
  store i32 1, ptr %9, align 4
  br label %43

13:                                               ; preds = %2
  %14 = load ptr, ptr %4, align 8, !tbaa !3
  store ptr %14, ptr %6, align 8, !tbaa !7
  %15 = load ptr, ptr %6, align 8, !tbaa !7
  %16 = getelementptr inbounds nuw %struct.CVodeMemRec, ptr %15, i32 0, i32 177
  %17 = load i32, ptr %16, align 8, !tbaa !50
  store i32 %17, ptr %8, align 4, !tbaa !24
  %18 = load i32, ptr %8, align 4, !tbaa !24
  %19 = icmp eq i32 %18, 0
  br i1 %19, label %20, label %22

20:                                               ; preds = %13
  %21 = load ptr, ptr %6, align 8, !tbaa !7
  call void (ptr, i32, ptr, ptr, ptr, ...) @cvProcessError(ptr noundef %21, i32 noundef -22, ptr noundef @.str, ptr noundef @.str.26, ptr noundef @.str.27)
  store i32 -22, ptr %3, align 4
  store i32 1, ptr %9, align 4
  br label %43

22:                                               ; preds = %13
  store i32 0, ptr %7, align 4, !tbaa !24
  br label %23

23:                                               ; preds = %39, %22
  %24 = load i32, ptr %7, align 4, !tbaa !24
  %25 = load i32, ptr %8, align 4, !tbaa !24
  %26 = icmp slt i32 %24, %25
  br i1 %26, label %27, label %42

27:                                               ; preds = %23
  %28 = load ptr, ptr %5, align 8, !tbaa !49
  %29 = load i32, ptr %7, align 4, !tbaa !24
  %30 = sext i32 %29 to i64
  %31 = getelementptr inbounds i32, ptr %28, i64 %30
  %32 = load i32, ptr %31, align 4, !tbaa !24
  %33 = load ptr, ptr %6, align 8, !tbaa !7
  %34 = getelementptr inbounds nuw %struct.CVodeMemRec, ptr %33, i32 0, i32 179
  %35 = load ptr, ptr %34, align 8, !tbaa !51
  %36 = load i32, ptr %7, align 4, !tbaa !24
  %37 = sext i32 %36 to i64
  %38 = getelementptr inbounds i32, ptr %35, i64 %37
  store i32 %32, ptr %38, align 4, !tbaa !24
  br label %39

39:                                               ; preds = %27
  %40 = load i32, ptr %7, align 4, !tbaa !24
  %41 = add nsw i32 %40, 1
  store i32 %41, ptr %7, align 4, !tbaa !24
  br label %23, !llvm.loop !52

42:                                               ; preds = %23
  store i32 0, ptr %3, align 4
  store i32 1, ptr %9, align 4
  br label %43

43:                                               ; preds = %42, %20, %12
  call void @llvm.lifetime.end.p0(i64 4, ptr %8) #5
  call void @llvm.lifetime.end.p0(i64 4, ptr %7) #5
  call void @llvm.lifetime.end.p0(i64 8, ptr %6) #5
  %44 = load i32, ptr %3, align 4
  ret i32 %44
}