; Function Attrs: nounwind uwtable
define range(i32 -22, 1) i32 @CVodeSetRootDirection(ptr noundef %0, ptr noundef readonly captures(none) %1) local_unnamed_addr #0 {
  %3 = icmp eq ptr %0, null
  br i1 %3, label %4, label %5

4:                                                ; preds = %2
  tail call void (ptr, i32, ptr, ptr, ptr, ...) @cvProcessError(ptr noundef null, i32 noundef -21, ptr noundef nonnull @.str, ptr noundef nonnull @.str.26, ptr noundef nonnull @.str.2) #6
  br label %.loopexit

5:                                                ; preds = %2
  %6 = getelementptr inbounds nuw i8, ptr %0, i64 2072
  %7 = load i32, ptr %6, align 8, !tbaa !42
  %8 = icmp eq i32 %7, 0
  br i1 %8, label %12, label %.preheader

.preheader:                                       ; preds = %5
  %9 = icmp sgt i32 %7, 0
  br i1 %9, label %.lr.ph, label %.loopexit

.lr.ph:                                           ; preds = %.preheader
  %10 = getelementptr inbounds nuw i8, ptr %0, i64 2088
  %11 = load ptr, ptr %10, align 8, !tbaa !43
  %wide.trip.count = zext nneg i32 %7 to i64
  br label %13

12:                                               ; preds = %5
  tail call void (ptr, i32, ptr, ptr, ptr, ...) @cvProcessError(ptr noundef nonnull %0, i32 noundef -22, ptr noundef nonnull @.str, ptr noundef nonnull @.str.26, ptr noundef nonnull @.str.27) #6
  br label %.loopexit

13:                                               ; preds = %.lr.ph, %13
  %indvars.iv = phi i64 [ 0, %.lr.ph ], [ %indvars.iv.next, %13 ]
  %14 = getelementptr inbounds nuw i32, ptr %1, i64 %indvars.iv
  %15 = load i32, ptr %14, align 4, !tbaa !44
  %16 = getelementptr inbounds nuw i32, ptr %11, i64 %indvars.iv
  store i32 %15, ptr %16, align 4, !tbaa !44
  %indvars.iv.next = add nuw nsw i64 %indvars.iv, 1
  %exitcond.not = icmp eq i64 %indvars.iv.next, %wide.trip.count
  br i1 %exitcond.not, label %.loopexit, label %13, !llvm.loop !45

.loopexit:                                        ; preds = %13, %.preheader, %12, %4
  %.0 = phi i32 [ -21, %4 ], [ -22, %12 ], [ 0, %.preheader ], [ 0, %13 ]
  ret i32 %.0
}